; ModuleID = '54/1063.c'
source_filename = "54/1063.c"
target datalayout = "e-m:e-p270:32:32-p271:32:32-p272:64:64-i64:64-f80:128-n8:16:32:64-S128"
target triple = "x86_64-pc-linux-gnu"

@.str = private unnamed_addr constant [6 x i8] c"%u %u\00", align 1
@.str.1 = private unnamed_addr constant [3 x i8] c"%u\00", align 1

; Function Attrs: noinline nounwind uwtable
define dso_local i32 @main() #0 {
  %1 = alloca i32, align 4
  %2 = alloca i32, align 4
  %3 = alloca i32, align 4
  %4 = alloca i32, align 4
  %5 = alloca i32, align 4
  store i32 0, i32* %1, align 4
  %6 = call i32 (i8*, ...) @__isoc99_scanf(i8* getelementptr inbounds ([6 x i8], [6 x i8]* @.str, i64 0, i64 0), i32* %3, i32* %4)
  %7 = load i32, i32* %3, align 4
  %8 = load i32, i32* %4, align 4
  %9 = call i32 @apple(i32 %7, i32 %8)
  store i32 %9, i32* %5, align 4
  %10 = load i32, i32* %5, align 4
  %11 = load i32, i32* %3, align 4
  %12 = mul i32 %10, %11
  %13 = load i32, i32* %4, align 4
  %14 = add i32 %12, %13
  store i32 %14, i32* %2, align 4
  %15 = load i32, i32* %2, align 4
  %16 = call i32 (i8*, ...) @printf(i8* getelementptr inbounds ([3 x i8], [3 x i8]* @.str.1, i64 0, i64 0), i32 %15)
  ret i32 0
}

declare dso_local i32 @__isoc99_scanf(i8*, ...) #1

; Function Attrs: noinline nounwind uwtable
define dso_local i32 @apple(i32 %0, i32 %1) #0 {
  %3 = alloca i32, align 4
  %4 = alloca i32, align 4
  %5 = alloca i32, align 4
  %6 = alloca i32, align 4
  %7 = alloca i32, align 4
  store i32 %0, i32* %3, align 4
  store i32 %1, i32* %4, align 4
  store i32 1, i32* %5, align 4
  br label %8

8:                                                ; preds = %44, %2
  %9 = load i32, i32* %5, align 4
  store i32 %9, i32* %6, align 4
  store i32 1, i32* %7, align 4
  br label %10

10:                                               ; preds = %35, %8
  %11 = load i32, i32* %7, align 4
  %12 = load i32, i32* %3, align 4
  %13 = icmp ult i32 %11, %12
  br i1 %13, label %14, label %38

14:                                               ; preds = %10
  %15 = load i32, i32* %6, align 4
  %16 = load i32, i32* %3, align 4
  %17 = mul i32 %15, %16
  %18 = load i32, i32* %4, align 4
  %19 = add i32 %17, %18
  %20 = load i32, i32* %3, align 4
  %21 = sub i32 %20, 1
  %22 = urem i32 %19, %21
  %23 = icmp eq i32 %22, 0
  br i1 %23, label %24, label %33

24:                                               ; preds = %14
  %25 = load i32, i32* %6, align 4
  %26 = load i32, i32* %3, align 4
  %27 = mul i32 %25, %26
  %28 = load i32, i32* %4, align 4
  %29 = add i32 %27, %28
  %30 = load i32, i32* %3, align 4
  %31 = sub i32 %30, 1
  %32 = udiv i32 %29, %31
  store i32 %32, i32* %6, align 4
  br label %34

33:                                               ; preds = %14
  br label %38

34:                                               ; preds = %24
  br label %35

35:                                               ; preds = %34
  %36 = load i32, i32* %7, align 4
  %37 = add i32 %36, 1
  store i32 %37, i32* %7, align 4
  br label %10

38:                                               ; preds = %33, %10
  %39 = load i32, i32* %7, align 4
  %40 = load i32, i32* %3, align 4
  %41 = icmp eq i32 %39, %40
  br i1 %41, label %42, label %43

42:                                               ; preds = %38
  br label %47

43:                                               ; preds = %38
  br label %44

44:                                               ; preds = %43
  %45 = load i32, i32* %5, align 4
  %46 = add i32 %45, 1
  store i32 %46, i32* %5, align 4
  br label %8

47:                                               ; preds = %42
  %48 = load i32, i32* %6, align 4
  ret i32 %48
}

declare dso_local i32 @printf(i8*, ...) #1


!llvm.module.flags = !{!0}
!llvm.ident = !{!1}

!0 = !{i32 1, !"wchar_size", i32 4}
!1 = !{!"clang version 10.0.0-4ubuntu1 "}
